; Function Attrs: mustprogress nounwind uwtable
define hidden void @_ZN13CodeInstaller21site_ExceptionHandlerEiP25HotSpotCompiledCodeStream(ptr noundef nonnull align 8 dereferenceable(225) %0, i32 noundef %1, ptr nocapture noundef %2) local_unnamed_addr #2 align 2 {
  %4 = getelementptr inbounds i8, ptr %2, i64 24
  %5 = load i8, ptr %4, align 8
  %6 = trunc i8 %5 to i1
  br i1 %6, label %7, label %8

7:                                                ; preds = %3
  tail call void @_ZN25HotSpotCompiledCodeStream10check_dataEtPKc(ptr noundef nonnull align 8 dereferenceable(64) %2, i16 noundef zeroext 4, ptr noundef nonnull @.str.115)
  br label %8

8:                                                ; preds = %7, %3
  %9 = getelementptr inbounds i8, ptr %2, i64 16
  %10 = load ptr, ptr %9, align 8
  %11 = getelementptr inbounds i8, ptr %10, i64 4
  %12 = getelementptr inbounds i8, ptr %2, i64 8
  %13 = load ptr, ptr %12, align 8
  %14 = getelementptr inbounds i8, ptr %13, i64 12
  %15 = getelementptr inbounds i8, ptr %13, i64 8
  %16 = load i32, ptr %15, align 8
  %17 = zext i32 %16 to i64
  %18 = getelementptr inbounds i8, ptr %14, i64 %17
  %19 = icmp ugt ptr %11, %18
  br i1 %19, label %20, label %_ZN25HotSpotCompiledCodeStream7read_u4EPKc.exit

20:                                               ; preds = %8
  %21 = load ptr, ptr %13, align 8
  %22 = icmp eq ptr %21, null
  br i1 %22, label %27, label %23

23:                                               ; preds = %20
  %24 = getelementptr inbounds i8, ptr %21, i64 8
  %25 = load i32, ptr %24, align 8
  %26 = icmp ult i32 %25, 4
  br i1 %26, label %27, label %34

27:                                               ; preds = %23, %20
  %28 = load ptr, ptr @tty, align 8
  tail call void @_ZNK25HotSpotCompiledCodeStream11dump_bufferEP12outputStream(ptr noundef nonnull align 8 dereferenceable(64) %2, ptr noundef %28)
  %29 = load ptr, ptr @g_assert_poison, align 8
  store i8 88, ptr %29, align 1
  %30 = getelementptr inbounds i8, ptr %2, i64 56
  %31 = load ptr, ptr %30, align 8
  %32 = load ptr, ptr %9, align 8
  %33 = ptrtoint ptr %32 to i64
  tail call void (i32, ptr, i32, ptr, ...) @_Z12report_fatal11VMErrorTypePKciS1_z(i32 noundef -536870912, ptr noundef nonnull @.str, i32 noundef 139, ptr noundef nonnull @.str.17, ptr noundef %31, i32 noundef 4, i64 noundef %33) #11
  unreachable

34:                                               ; preds = %23
  store ptr %21, ptr %12, align 8
  %35 = getelementptr inbounds i8, ptr %21, i64 12
  store ptr %35, ptr %9, align 8
  br label %_ZN25HotSpotCompiledCodeStream7read_u4EPKc.exit

_ZN25HotSpotCompiledCodeStream7read_u4EPKc.exit:  ; preds = %8, %34
  %36 = phi ptr [ %10, %8 ], [ %35, %34 ]
  %37 = load i32, ptr %36, align 4
  %38 = getelementptr inbounds i8, ptr %36, i64 4
  store ptr %38, ptr %9, align 8
  %39 = getelementptr inbounds i8, ptr %0, i64 176
  %.sroa.26.0.insert.ext = zext i32 %1 to i64
  %.sroa.26.0.insert.shift = shl nuw i64 %.sroa.26.0.insert.ext, 32
  %.sroa.05.0.insert.insert = or disjoint i64 %.sroa.26.0.insert.shift, 1
  tail call void @_ZN21ExceptionHandlerTable9add_entryE17HandlerTableEntry(ptr noundef nonnull align 8 dereferenceable(17) %39, i64 %.sroa.05.0.insert.insert, i32 0) #10
  %.sroa.2.0.insert.ext = zext i32 %37 to i64
  %.sroa.2.0.insert.shift = shl nuw i64 %.sroa.2.0.insert.ext, 32
  %.sroa.0.0.insert.insert = or disjoint i64 %.sroa.2.0.insert.shift, 4294967295
  tail call void @_ZN21ExceptionHandlerTable9add_entryE17HandlerTableEntry(ptr noundef nonnull align 8 dereferenceable(17) %39, i64 %.sroa.0.0.insert.insert, i32 0) #10
  ret void
}